target datalayout = "e-m:e-p270:32:32-p271:32:32-p272:64:64-i64:64-i128:128-f80:128-n8:16:32:64-S128"
target triple = "x86_64-pc-linux-gnu"

%struct.VariableStatData = type { ptr, ptr, ptr, ptr, i32, i32, i32, i8, i8 }

@.str.1 = private unnamed_addr constant [11 x i8] c"selfuncs.c\00", align 1
@.str.7 = private unnamed_addr constant [60 x i8] c"not using statistics because function \22%s\22 is not leakproof\00", align 1
@__func__.statistic_proc_security_check = private unnamed_addr constant [30 x i8] c"statistic_proc_security_check\00", align 1

; Function Attrs: nounwind uwtable
define dso_local zeroext i1 @statistic_proc_security_check(ptr noundef %0, i32 noundef %1) #0 {
  %3 = alloca i1, align 1
  %4 = alloca ptr, align 8
  %5 = alloca i32, align 4
  store ptr %0, ptr %4, align 8
  store i32 %1, ptr %5, align 4
  %6 = load ptr, ptr %4, align 8
  %7 = getelementptr inbounds nuw %struct.VariableStatData, ptr %6, i32 0, i32 8
  %8 = load i8, ptr %7, align 1, !range !4, !noundef !5
  %9 = trunc i8 %8 to i1
  br i1 %9, label %10, label %11

10:                                               ; preds = %2
  store i1 true, ptr %3, align 1
  br label %31

11:                                               ; preds = %2
  %12 = load i32, ptr %5, align 4
  %13 = icmp ne i32 %12, 0
  br i1 %13, label %15, label %14

14:                                               ; preds = %11
  store i1 false, ptr %3, align 1
  br label %31

15:                                               ; preds = %11
  %16 = load i32, ptr %5, align 4
  %17 = call zeroext i1 @get_func_leakproof(i32 noundef %16)
  br i1 %17, label %18, label %19

18:                                               ; preds = %15
  store i1 true, ptr %3, align 1
  br label %31

19:                                               ; preds = %15
  br label %20

20:                                               ; preds = %19
  br i1 false, label %21, label %23

21:                                               ; preds = %20
  %22 = call zeroext i1 @errstart_cold(i32 noundef 13, ptr noundef null) #11
  br i1 %22, label %25, label %29

23:                                               ; preds = %20
  %24 = call zeroext i1 @errstart(i32 noundef 13, ptr noundef null)
  br i1 %24, label %25, label %29

25:                                               ; preds = %23, %21
  %26 = load i32, ptr %5, align 4
  %27 = call ptr @get_func_name(i32 noundef %26)
  %28 = call i32 (ptr, ...) @errmsg_internal(ptr noundef @.str.7, ptr noundef %27)
  call void @errfinish(ptr noundef @.str.1, i32 noundef 5782, ptr noundef @__func__.statistic_proc_security_check)
  br label %29

29:                                               ; preds = %25, %23, %21
  br label %30

30:                                               ; preds = %29
  store i1 false, ptr %3, align 1
  br label %31

31:                                               ; preds = %30, %18, %14, %10
  %32 = load i1, ptr %3, align 1
  ret i1 %32
}