; Function Attrs: nounwind uwtable
define dso_local noundef zeroext i1 @statistic_proc_security_check(ptr noundef readonly captures(none) %0, i32 noundef %1) local_unnamed_addr #0 {
  %3 = getelementptr inbounds nuw i8, ptr %0, i64 45
  %4 = load i8, ptr %3, align 1, !range !4, !noundef !5
  %5 = trunc nuw i8 %4 to i1
  br i1 %5, label %14, label %6

6:                                                ; preds = %2
  %.not = icmp eq i32 %1, 0
  br i1 %.not, label %14, label %7

7:                                                ; preds = %6
  %8 = tail call zeroext i1 @get_func_leakproof(i32 noundef %1) #12
  br i1 %8, label %14, label %9

9:                                                ; preds = %7
  %10 = tail call zeroext i1 @errstart(i32 noundef 13, ptr noundef null) #12
  br i1 %10, label %11, label %14

11:                                               ; preds = %9
  %12 = tail call ptr @get_func_name(i32 noundef %1) #12
  %13 = tail call i32 (ptr, ...) @errmsg_internal(ptr noundef nonnull @.str.7, ptr noundef %12) #12
  tail call void @errfinish(ptr noundef nonnull @.str.1, i32 noundef 5782, ptr noundef nonnull @__func__.statistic_proc_security_check) #12
  br label %14

14:                                               ; preds = %11, %9, %7, %6, %2
  %.0 = phi i1 [ true, %2 ], [ false, %6 ], [ true, %7 ], [ false, %9 ], [ false, %11 ]
  ret i1 %.0
}